; Function Attrs: nounwind uwtable
define dso_local void @raxFree(ptr noundef %0) local_unnamed_addr #1 {
  %2 = load ptr, ptr %0, align 8, !tbaa !11
  tail call void @raxRecursiveFree(ptr noundef nonnull %0, ptr noundef %2, ptr noundef null)
  %3 = getelementptr inbounds nuw i8, ptr %0, i64 16
  %4 = load i64, ptr %3, align 8, !tbaa !9
  %5 = icmp eq i64 %4, 0
  br i1 %5, label %raxFreeWithCallback.exit, label %6, !prof !14

6:                                                ; preds = %1
  tail call void @_serverAssert(ptr noundef nonnull @.str.4, ptr noundef nonnull @.str.1, i32 noundef 1241) #26
  tail call void @abort() #28
  unreachable

raxFreeWithCallback.exit:                         ; preds = %1
  tail call void @zfree(ptr noundef nonnull %0) #26
  ret void
}